In archive libmemory.a:

main.o:     file format elf32-avr

Sections:
Idx Name          Size      VMA       LMA       File off  Algn
  0 .text         00000000  00000000  00000000  00000034  2**0
                  CONTENTS, ALLOC, LOAD, READONLY, CODE
  1 .data         00000000  00000000  00000000  00000034  2**0
                  CONTENTS, ALLOC, LOAD, DATA
  2 .bss          00000000  00000000  00000000  00000034  2**0
                  ALLOC
  3 .rodata.str1.1 0000002c  00000000  00000000  00000034  2**0
                  CONTENTS, ALLOC, LOAD, READONLY, DATA
  4 .text.startup 00000240  00000000  00000000  00000060  2**0
                  CONTENTS, ALLOC, LOAD, RELOC, READONLY, CODE
  5 .comment      00000012  00000000  00000000  000002a0  2**0
                  CONTENTS, READONLY

Disassembly of section .text.startup:

00000000 <main>:
   0:	ef 92       	push	r14
   2:	ff 92       	push	r15
   4:	0f 93       	push	r16
   6:	1f 93       	push	r17
   8:	cf 93       	push	r28
   a:	df 93       	push	r29
   c:	cd b7       	in	r28, 0x3d	; 61
   e:	de b7       	in	r29, 0x3e	; 62
  10:	c0 5b       	subi	r28, 0xB0	; 176
  12:	d1 09       	sbc	r29, r1
  14:	0f b6       	in	r0, 0x3f	; 63
  16:	f8 94       	cli
  18:	de bf       	out	0x3e, r29	; 62
  1a:	0f be       	out	0x3f, r0	; 63
  1c:	cd bf       	out	0x3d, r28	; 61
  1e:	40 e8       	ldi	r20, 0x80	; 128
  20:	50 e0       	ldi	r21, 0x00	; 0
  22:	be 01       	movw	r22, r28
  24:	6f 5f       	subi	r22, 0xFF	; 255
  26:	7f 4f       	sbci	r23, 0xFF	; 255
  28:	ce 01       	movw	r24, r28
  2a:	88 55       	subi	r24, 0x58	; 88
  2c:	9f 4f       	sbci	r25, 0xFF	; 255
  2e:	0e 94 00 00 	call	0	; 0x0 <main>
  32:	8e 01       	movw	r16, r28
  34:	05 56       	subi	r16, 0x65	; 101
  36:	1f 4f       	sbci	r17, 0xFF	; 255
  38:	24 e6       	ldi	r18, 0x64	; 100
  3a:	30 e0       	ldi	r19, 0x00	; 0
  3c:	4a e0       	ldi	r20, 0x0A	; 10
  3e:	50 e0       	ldi	r21, 0x00	; 0
  40:	be 01       	movw	r22, r28
  42:	68 55       	subi	r22, 0x58	; 88
  44:	7f 4f       	sbci	r23, 0xFF	; 255
  46:	c8 01       	movw	r24, r16
  48:	0e 94 00 00 	call	0	; 0x0 <main>
  4c:	29 e0       	ldi	r18, 0x09	; 9
  4e:	30 e0       	ldi	r19, 0x00	; 0
  50:	40 e0       	ldi	r20, 0x00	; 0
  52:	50 e0       	ldi	r21, 0x00	; 0
  54:	be 01       	movw	r22, r28
  56:	68 55       	subi	r22, 0x58	; 88
  58:	7f 4f       	sbci	r23, 0xFF	; 255
  5a:	ce 01       	movw	r24, r28
  5c:	82 57       	subi	r24, 0x72	; 114
  5e:	9f 4f       	sbci	r25, 0xFF	; 255
  60:	0e 94 00 00 	call	0	; 0x0 <main>
  64:	20 e8       	ldi	r18, 0x80	; 128
  66:	30 e0       	ldi	r19, 0x00	; 0
  68:	44 e6       	ldi	r20, 0x64	; 100
  6a:	50 e0       	ldi	r21, 0x00	; 0
  6c:	be 01       	movw	r22, r28
  6e:	68 55       	subi	r22, 0x58	; 88
  70:	7f 4f       	sbci	r23, 0xFF	; 255
  72:	ce 01       	movw	r24, r28
  74:	8f 57       	subi	r24, 0x7F	; 127
  76:	9f 4f       	sbci	r25, 0xFF	; 255
  78:	0e 94 00 00 	call	0	; 0x0 <main>
  7c:	60 e0       	ldi	r22, 0x00	; 0
  7e:	70 e0       	ldi	r23, 0x00	; 0
  80:	80 e0       	ldi	r24, 0x00	; 0
  82:	90 e0       	ldi	r25, 0x00	; 0
  84:	0e 94 00 00 	call	0	; 0x0 <main>
  88:	f8 01       	movw	r30, r16
  8a:	63 85       	ldd	r22, Z+11	; 0x0b
  8c:	74 85       	ldd	r23, Z+12	; 0x0c
  8e:	81 85       	ldd	r24, Z+9	; 0x09
  90:	92 85       	ldd	r25, Z+10	; 0x0a
  92:	68 1b       	sub	r22, r24
  94:	79 0b       	sbc	r23, r25
  96:	4a e0       	ldi	r20, 0x0A	; 10
  98:	50 e0       	ldi	r21, 0x00	; 0
  9a:	80 e0       	ldi	r24, 0x00	; 0
  9c:	90 e0       	ldi	r25, 0x00	; 0
  9e:	0e 94 00 00 	call	0	; 0x0 <main>
  a2:	60 e0       	ldi	r22, 0x00	; 0
  a4:	70 e0       	ldi	r23, 0x00	; 0
  a6:	80 e0       	ldi	r24, 0x00	; 0
  a8:	90 e0       	ldi	r25, 0x00	; 0
  aa:	0e 94 00 00 	call	0	; 0x0 <main>
  ae:	c7 56       	subi	r28, 0x67	; 103
  b0:	df 4f       	sbci	r29, 0xFF	; 255
  b2:	68 81       	ld	r22, Y
  b4:	79 81       	ldd	r23, Y+1	; 0x01
  b6:	c9 59       	subi	r28, 0x99	; 153
  b8:	d0 40       	sbci	r29, 0x00	; 0
  ba:	c9 56       	subi	r28, 0x69	; 105
  bc:	df 4f       	sbci	r29, 0xFF	; 255
  be:	88 81       	ld	r24, Y
  c0:	99 81       	ldd	r25, Y+1	; 0x01
  c2:	c7 59       	subi	r28, 0x97	; 151
  c4:	d0 40       	sbci	r29, 0x00	; 0
  c6:	68 1b       	sub	r22, r24
  c8:	79 0b       	sbc	r23, r25
  ca:	4a e0       	ldi	r20, 0x0A	; 10
  cc:	50 e0       	ldi	r21, 0x00	; 0
  ce:	80 e0       	ldi	r24, 0x00	; 0
  d0:	90 e0       	ldi	r25, 0x00	; 0
  d2:	0e 94 00 00 	call	0	; 0x0 <main>
  d6:	60 e0       	ldi	r22, 0x00	; 0
  d8:	70 e0       	ldi	r23, 0x00	; 0
  da:	80 e0       	ldi	r24, 0x00	; 0
  dc:	90 e0       	ldi	r25, 0x00	; 0
  de:	0e 94 00 00 	call	0	; 0x0 <main>
  e2:	c4 57       	subi	r28, 0x74	; 116
  e4:	df 4f       	sbci	r29, 0xFF	; 255
  e6:	68 81       	ld	r22, Y
  e8:	79 81       	ldd	r23, Y+1	; 0x01
  ea:	cc 58       	subi	r28, 0x8C	; 140
  ec:	d0 40       	sbci	r29, 0x00	; 0
  ee:	c6 57       	subi	r28, 0x76	; 118
  f0:	df 4f       	sbci	r29, 0xFF	; 255
  f2:	88 81       	ld	r24, Y
  f4:	99 81       	ldd	r25, Y+1	; 0x01
  f6:	ca 58       	subi	r28, 0x8A	; 138
  f8:	d0 40       	sbci	r29, 0x00	; 0
  fa:	68 1b       	sub	r22, r24
  fc:	79 0b       	sbc	r23, r25
  fe:	4a e0       	ldi	r20, 0x0A	; 10
 100:	50 e0       	ldi	r21, 0x00	; 0
 102:	80 e0       	ldi	r24, 0x00	; 0
 104:	90 e0       	ldi	r25, 0x00	; 0
 106:	0e 94 00 00 	call	0	; 0x0 <main>
 10a:	e1 2c       	mov	r14, r1
 10c:	f1 2c       	mov	r15, r1
 10e:	00 c0       	rjmp	.+0      	; 0x110 <main+0x110>
 110:	4f ef       	ldi	r20, 0xFF	; 255
 112:	b7 01       	movw	r22, r14
 114:	c8 01       	movw	r24, r16
 116:	0e 94 00 00 	call	0	; 0x0 <main>
 11a:	ff ef       	ldi	r31, 0xFF	; 255
 11c:	ef 1a       	sub	r14, r31
 11e:	ff 0a       	sbc	r15, r31
 120:	f8 01       	movw	r30, r16
 122:	83 85       	ldd	r24, Z+11	; 0x0b
 124:	94 85       	ldd	r25, Z+12	; 0x0c
 126:	21 85       	ldd	r18, Z+9	; 0x09
 128:	32 85       	ldd	r19, Z+10	; 0x0a
 12a:	82 1b       	sub	r24, r18
 12c:	93 0b       	sbc	r25, r19
 12e:	e8 16       	cp	r14, r24
 130:	f9 06       	cpc	r15, r25
 132:	00 f0       	brcs	.+0      	; 0x134 <main+0x134>
 134:	00 e0       	ldi	r16, 0x00	; 0
 136:	10 e0       	ldi	r17, 0x00	; 0
 138:	00 c0       	rjmp	.+0      	; 0x13a <main+0x13a>
 13a:	4e ee       	ldi	r20, 0xEE	; 238
 13c:	b8 01       	movw	r22, r16
 13e:	ce 01       	movw	r24, r28
 140:	82 57       	subi	r24, 0x72	; 114
 142:	9f 4f       	sbci	r25, 0xFF	; 255
 144:	0e 94 00 00 	call	0	; 0x0 <main>
 148:	0f 5f       	subi	r16, 0xFF	; 255
 14a:	1f 4f       	sbci	r17, 0xFF	; 255
 14c:	c7 56       	subi	r28, 0x67	; 103
 14e:	df 4f       	sbci	r29, 0xFF	; 255
 150:	88 81       	ld	r24, Y
 152:	99 81       	ldd	r25, Y+1	; 0x01
 154:	c9 59       	subi	r28, 0x99	; 153
 156:	d0 40       	sbci	r29, 0x00	; 0
 158:	c9 56       	subi	r28, 0x69	; 105
 15a:	df 4f       	sbci	r29, 0xFF	; 255
 15c:	28 81       	ld	r18, Y
 15e:	39 81       	ldd	r19, Y+1	; 0x01
 160:	c7 59       	subi	r28, 0x97	; 151
 162:	d0 40       	sbci	r29, 0x00	; 0
 164:	82 1b       	sub	r24, r18
 166:	93 0b       	sbc	r25, r19
 168:	08 17       	cp	r16, r24
 16a:	19 07       	cpc	r17, r25
 16c:	00 f0       	brcs	.+0      	; 0x16e <main+0x16e>
 16e:	00 e0       	ldi	r16, 0x00	; 0
 170:	10 e0       	ldi	r17, 0x00	; 0
 172:	00 c0       	rjmp	.+0      	; 0x174 <main+0x174>
 174:	4a ea       	ldi	r20, 0xAA	; 170
 176:	b8 01       	movw	r22, r16
 178:	ce 01       	movw	r24, r28
 17a:	8f 57       	subi	r24, 0x7F	; 127
 17c:	9f 4f       	sbci	r25, 0xFF	; 255
 17e:	0e 94 00 00 	call	0	; 0x0 <main>
 182:	0f 5f       	subi	r16, 0xFF	; 255
 184:	1f 4f       	sbci	r17, 0xFF	; 255
 186:	c4 57       	subi	r28, 0x74	; 116
 188:	df 4f       	sbci	r29, 0xFF	; 255
 18a:	88 81       	ld	r24, Y
 18c:	99 81       	ldd	r25, Y+1	; 0x01
 18e:	cc 58       	subi	r28, 0x8C	; 140
 190:	d0 40       	sbci	r29, 0x00	; 0
 192:	c6 57       	subi	r28, 0x76	; 118
 194:	df 4f       	sbci	r29, 0xFF	; 255
 196:	28 81       	ld	r18, Y
 198:	39 81       	ldd	r19, Y+1	; 0x01
 19a:	ca 58       	subi	r28, 0x8A	; 138
 19c:	d0 40       	sbci	r29, 0x00	; 0
 19e:	82 1b       	sub	r24, r18
 1a0:	93 0b       	sbc	r25, r19
 1a2:	08 17       	cp	r16, r24
 1a4:	19 07       	cpc	r17, r25
 1a6:	00 f0       	brcs	.+0      	; 0x1a8 <main+0x1a8>
 1a8:	60 e0       	ldi	r22, 0x00	; 0
 1aa:	70 e0       	ldi	r23, 0x00	; 0
 1ac:	80 e0       	ldi	r24, 0x00	; 0
 1ae:	90 e0       	ldi	r25, 0x00	; 0
 1b0:	0e 94 00 00 	call	0	; 0x0 <main>
 1b4:	6d ef       	ldi	r22, 0xFD	; 253
 1b6:	7f e0       	ldi	r23, 0x0F	; 15
 1b8:	ce 01       	movw	r24, r28
 1ba:	88 55       	subi	r24, 0x58	; 88
 1bc:	9f 4f       	sbci	r25, 0xFF	; 255
 1be:	0e 94 00 00 	call	0	; 0x0 <main>
 1c2:	4a e0       	ldi	r20, 0x0A	; 10
 1c4:	50 e0       	ldi	r21, 0x00	; 0
 1c6:	bc 01       	movw	r22, r24
 1c8:	80 e0       	ldi	r24, 0x00	; 0
 1ca:	90 e0       	ldi	r25, 0x00	; 0
 1cc:	0e 94 00 00 	call	0	; 0x0 <main>
 1d0:	60 e0       	ldi	r22, 0x00	; 0
 1d2:	70 e0       	ldi	r23, 0x00	; 0
 1d4:	80 e0       	ldi	r24, 0x00	; 0
 1d6:	90 e0       	ldi	r25, 0x00	; 0
 1d8:	0e 94 00 00 	call	0	; 0x0 <main>
 1dc:	6d e2       	ldi	r22, 0x2D	; 45
 1de:	7a e0       	ldi	r23, 0x0A	; 10
 1e0:	ce 01       	movw	r24, r28
 1e2:	88 55       	subi	r24, 0x58	; 88
 1e4:	9f 4f       	sbci	r25, 0xFF	; 255
 1e6:	0e 94 00 00 	call	0	; 0x0 <main>
 1ea:	4a e0       	ldi	r20, 0x0A	; 10
 1ec:	50 e0       	ldi	r21, 0x00	; 0
 1ee:	bc 01       	movw	r22, r24
 1f0:	80 e0       	ldi	r24, 0x00	; 0
 1f2:	90 e0       	ldi	r25, 0x00	; 0
 1f4:	0e 94 00 00 	call	0	; 0x0 <main>
 1f8:	60 e0       	ldi	r22, 0x00	; 0
 1fa:	70 e0       	ldi	r23, 0x00	; 0
 1fc:	80 e0       	ldi	r24, 0x00	; 0
 1fe:	90 e0       	ldi	r25, 0x00	; 0
 200:	0e 94 00 00 	call	0	; 0x0 <main>
 204:	6f ee       	ldi	r22, 0xEF	; 239
 206:	70 e0       	ldi	r23, 0x00	; 0
 208:	ce 01       	movw	r24, r28
 20a:	88 55       	subi	r24, 0x58	; 88
 20c:	9f 4f       	sbci	r25, 0xFF	; 255
 20e:	0e 94 00 00 	call	0	; 0x0 <main>
 212:	4a e0       	ldi	r20, 0x0A	; 10
 214:	50 e0       	ldi	r21, 0x00	; 0
 216:	bc 01       	movw	r22, r24
 218:	80 e0       	ldi	r24, 0x00	; 0
 21a:	90 e0       	ldi	r25, 0x00	; 0
 21c:	0e 94 00 00 	call	0	; 0x0 <main>
 220:	80 e0       	ldi	r24, 0x00	; 0
 222:	90 e0       	ldi	r25, 0x00	; 0
 224:	c0 55       	subi	r28, 0x50	; 80
 226:	df 4f       	sbci	r29, 0xFF	; 255
 228:	0f b6       	in	r0, 0x3f	; 63
 22a:	f8 94       	cli
 22c:	de bf       	out	0x3e, r29	; 62
 22e:	0f be       	out	0x3f, r0	; 63
 230:	cd bf       	out	0x3d, r28	; 61
 232:	df 91       	pop	r29
 234:	cf 91       	pop	r28
 236:	1f 91       	pop	r17
 238:	0f 91       	pop	r16
 23a:	ff 90       	pop	r15
 23c:	ef 90       	pop	r14
 23e:	08 95       	ret

ExternalMappedEeprom.o:     file format elf32-avr

Sections:
Idx Name          Size      VMA       LMA       File off  Algn
  0 .group        00000008  00000000  00000000  00000034  2**2
                  CONTENTS, READONLY, EXCLUDE, GROUP, LINK_ONCE_DISCARD
  1 .text         000000b6  00000000  00000000  0000003c  2**0
                  CONTENTS, ALLOC, LOAD, RELOC, READONLY, CODE
  2 .data         00000000  00000000  00000000  000000f2  2**0
                  CONTENTS, ALLOC, LOAD, DATA
  3 .bss          00000000  00000000  00000000  000000f2  2**0
                  ALLOC
  4 .rodata._ZTV20ExternalMappedEeprom 00000012  00000000  00000000  000000f2  2**0
                  CONTENTS, ALLOC, LOAD, RELOC, READONLY, DATA
  5 .comment      00000012  00000000  00000000  00000104  2**0
                  CONTENTS, READONLY

Disassembly of section .text:

00000000 <_ZN20ExternalMappedEeprom10writeBlockEjPhi>:
   0:	fc 01       	movw	r30, r24
   2:	81 85       	ldd	r24, Z+9	; 0x09
   4:	92 85       	ldd	r25, Z+10	; 0x0a
   6:	68 0f       	add	r22, r24
   8:	79 1f       	adc	r23, r25
   a:	83 85       	ldd	r24, Z+11	; 0x0b
   c:	94 85       	ldd	r25, Z+12	; 0x0c
   e:	68 17       	cp	r22, r24
  10:	79 07       	cpc	r23, r25
  12:	00 f4       	brcc	.+0      	; 0x14 <_ZN20ExternalMappedEeprom10writeBlockEjPhi+0x14>
  14:	86 1b       	sub	r24, r22
  16:	97 0b       	sbc	r25, r23
  18:	82 17       	cp	r24, r18
  1a:	93 07       	cpc	r25, r19
  1c:	00 f4       	brcc	.+0      	; 0x1e <_ZN20ExternalMappedEeprom10writeBlockEjPhi+0x1e>
  1e:	9c 01       	movw	r18, r24
  20:	87 81       	ldd	r24, Z+7	; 0x07
  22:	90 85       	ldd	r25, Z+8	; 0x08
  24:	dc 01       	movw	r26, r24
  26:	ed 91       	ld	r30, X+
  28:	fc 91       	ld	r31, X
  2a:	02 84       	ldd	r0, Z+10	; 0x0a
  2c:	f3 85       	ldd	r31, Z+11	; 0x0b
  2e:	e0 2d       	mov	r30, r0
  30:	09 94       	ijmp
  32:	08 95       	ret

00000034 <_ZN20ExternalMappedEeprom9readBlockEjPhi>:
  34:	fc 01       	movw	r30, r24
  36:	81 85       	ldd	r24, Z+9	; 0x09
  38:	92 85       	ldd	r25, Z+10	; 0x0a
  3a:	68 0f       	add	r22, r24
  3c:	79 1f       	adc	r23, r25
  3e:	83 85       	ldd	r24, Z+11	; 0x0b
  40:	94 85       	ldd	r25, Z+12	; 0x0c
  42:	68 17       	cp	r22, r24
  44:	79 07       	cpc	r23, r25
  46:	00 f4       	brcc	.+0      	; 0x48 <_ZN20ExternalMappedEeprom9readBlockEjPhi+0x14>
  48:	86 1b       	sub	r24, r22
  4a:	97 0b       	sbc	r25, r23
  4c:	82 17       	cp	r24, r18
  4e:	93 07       	cpc	r25, r19
  50:	00 f4       	brcc	.+0      	; 0x52 <_ZN20ExternalMappedEeprom9readBlockEjPhi+0x1e>
  52:	9c 01       	movw	r18, r24
  54:	87 81       	ldd	r24, Z+7	; 0x07
  56:	90 85       	ldd	r25, Z+8	; 0x08
  58:	dc 01       	movw	r26, r24
  5a:	ed 91       	ld	r30, X+
  5c:	fc 91       	ld	r31, X
  5e:	04 84       	ldd	r0, Z+12	; 0x0c
  60:	f5 85       	ldd	r31, Z+13	; 0x0d
  62:	e0 2d       	mov	r30, r0
  64:	09 94       	ijmp
  66:	08 95       	ret

00000068 <_ZN20ExternalMappedEepromC1EP14ExternalEepromjj>:
  68:	cf 92       	push	r12
  6a:	df 92       	push	r13
  6c:	ef 92       	push	r14
  6e:	ff 92       	push	r15
  70:	0f 93       	push	r16
  72:	1f 93       	push	r17
  74:	cf 93       	push	r28
  76:	df 93       	push	r29
  78:	ec 01       	movw	r28, r24
  7a:	8b 01       	movw	r16, r22
  7c:	7a 01       	movw	r14, r20
  7e:	69 01       	movw	r12, r18
  80:	fb 01       	movw	r30, r22
  82:	42 81       	ldd	r20, Z+2	; 0x02
  84:	53 81       	ldd	r21, Z+3	; 0x03
  86:	64 81       	ldd	r22, Z+4	; 0x04
  88:	75 81       	ldd	r23, Z+5	; 0x05
  8a:	26 81       	ldd	r18, Z+6	; 0x06
  8c:	0e 94 00 00 	call	0	; 0x0 <_ZN20ExternalMappedEeprom10writeBlockEjPhi>
  90:	80 e0       	ldi	r24, 0x00	; 0
  92:	90 e0       	ldi	r25, 0x00	; 0
  94:	99 83       	std	Y+1, r25	; 0x01
  96:	88 83       	st	Y, r24
  98:	18 87       	std	Y+8, r17	; 0x08
  9a:	0f 83       	std	Y+7, r16	; 0x07
  9c:	fa 86       	std	Y+10, r15	; 0x0a
  9e:	e9 86       	std	Y+9, r14	; 0x09
  a0:	dc 86       	std	Y+12, r13	; 0x0c
  a2:	cb 86       	std	Y+11, r12	; 0x0b
  a4:	df 91       	pop	r29
  a6:	cf 91       	pop	r28
  a8:	1f 91       	pop	r17
  aa:	0f 91       	pop	r16
  ac:	ff 90       	pop	r15
  ae:	ef 90       	pop	r14
  b0:	df 90       	pop	r13
  b2:	cf 90       	pop	r12
  b4:	08 95       	ret

ExternalFileEeprom.o:     file format elf32-avr

Sections:
Idx Name          Size      VMA       LMA       File off  Algn
  0 .text         00000000  00000000  00000000  00000034  2**0
                  CONTENTS, ALLOC, LOAD, READONLY, CODE
  1 .data         00000000  00000000  00000000  00000034  2**0
                  CONTENTS, ALLOC, LOAD, DATA
  2 .bss          00000000  00000000  00000000  00000034  2**0
                  ALLOC
  3 .comment      00000012  00000000  00000000  00000034  2**0
                  CONTENTS, READONLY

ExternalEeprom.o:     file format elf32-avr

Sections:
Idx Name          Size      VMA       LMA       File off  Algn
  0 .group        00000008  00000000  00000000  00000034  2**2
                  CONTENTS, READONLY, EXCLUDE, GROUP, LINK_ONCE_DISCARD
  1 .text         00000302  00000000  00000000  0000003c  2**0
                  CONTENTS, ALLOC, LOAD, RELOC, READONLY, CODE
  2 .data         00000000  00000000  00000000  0000033e  2**0
                  CONTENTS, ALLOC, LOAD, DATA
  3 .bss          00000000  00000000  00000000  0000033e  2**0
                  ALLOC
  4 .rodata._ZTV14ExternalEeprom 00000012  00000000  00000000  0000033e  2**0
                  CONTENTS, ALLOC, LOAD, RELOC, READONLY, DATA
  5 .comment      00000012  00000000  00000000  00000350  2**0
                  CONTENTS, READONLY

Disassembly of section .text:

00000000 <_ZN14ExternalEeprom5writeEjh>:
   0:	cf 93       	push	r28
   2:	df 93       	push	r29
   4:	1f 92       	push	r1
   6:	cd b7       	in	r28, 0x3d	; 61
   8:	de b7       	in	r29, 0x3e	; 62
   a:	49 83       	std	Y+1, r20	; 0x01
   c:	dc 01       	movw	r26, r24
   e:	ed 91       	ld	r30, X+
  10:	fc 91       	ld	r31, X
  12:	02 84       	ldd	r0, Z+10	; 0x0a
  14:	f3 85       	ldd	r31, Z+11	; 0x0b
  16:	e0 2d       	mov	r30, r0
  18:	21 e0       	ldi	r18, 0x01	; 1
  1a:	30 e0       	ldi	r19, 0x00	; 0
  1c:	ae 01       	movw	r20, r28
  1e:	4f 5f       	subi	r20, 0xFF	; 255
  20:	5f 4f       	sbci	r21, 0xFF	; 255
  22:	09 95       	icall
  24:	0f 90       	pop	r0
  26:	df 91       	pop	r29
  28:	cf 91       	pop	r28
  2a:	08 95       	ret

0000002c <_ZN14ExternalEeprom4readEj>:
  2c:	cf 93       	push	r28
  2e:	df 93       	push	r29
  30:	1f 92       	push	r1
  32:	cd b7       	in	r28, 0x3d	; 61
  34:	de b7       	in	r29, 0x3e	; 62
  36:	dc 01       	movw	r26, r24
  38:	ed 91       	ld	r30, X+
  3a:	fc 91       	ld	r31, X
  3c:	06 80       	ldd	r0, Z+6	; 0x06
  3e:	f7 81       	ldd	r31, Z+7	; 0x07
  40:	e0 2d       	mov	r30, r0
  42:	21 e0       	ldi	r18, 0x01	; 1
  44:	30 e0       	ldi	r19, 0x00	; 0
  46:	ae 01       	movw	r20, r28
  48:	4f 5f       	subi	r20, 0xFF	; 255
  4a:	5f 4f       	sbci	r21, 0xFF	; 255
  4c:	09 95       	icall
  4e:	01 96       	adiw	r24, 0x01	; 1
  50:	01 f0       	breq	.+0      	; 0x52 <_ZN14ExternalEeprom4readEj+0x26>
  52:	29 81       	ldd	r18, Y+1	; 0x01
  54:	30 e0       	ldi	r19, 0x00	; 0
  56:	00 c0       	rjmp	.+0      	; 0x58 <_ZN14ExternalEeprom4readEj+0x2c>
  58:	2f ef       	ldi	r18, 0xFF	; 255
  5a:	3f ef       	ldi	r19, 0xFF	; 255
  5c:	c9 01       	movw	r24, r18
  5e:	0f 90       	pop	r0
  60:	df 91       	pop	r29
  62:	cf 91       	pop	r28
  64:	08 95       	ret

00000066 <_ZN14ExternalEeprom9readBytesEjPhi>:
  66:	8f 92       	push	r8
  68:	9f 92       	push	r9
  6a:	af 92       	push	r10
  6c:	bf 92       	push	r11
  6e:	cf 92       	push	r12
  70:	df 92       	push	r13
  72:	ef 92       	push	r14
  74:	ff 92       	push	r15
  76:	0f 93       	push	r16
  78:	1f 93       	push	r17
  7a:	cf 93       	push	r28
  7c:	df 93       	push	r29
  7e:	5c 01       	movw	r10, r24
  80:	8b 01       	movw	r16, r22
  82:	4a 01       	movw	r8, r20
  84:	69 01       	movw	r12, r18
  86:	dc 01       	movw	r26, r24
  88:	12 96       	adiw	r26, 0x02	; 2
  8a:	8d 91       	ld	r24, X+
  8c:	9c 91       	ld	r25, X
  8e:	13 97       	sbiw	r26, 0x03	; 3
  90:	68 17       	cp	r22, r24
  92:	79 07       	cpc	r23, r25
  94:	00 f4       	brcc	.+0      	; 0x96 <_ZN14ExternalEeprom9readBytesEjPhi+0x30>
  96:	86 1b       	sub	r24, r22
  98:	97 0b       	sbc	r25, r23
  9a:	82 17       	cp	r24, r18
  9c:	93 07       	cpc	r25, r19
  9e:	00 f4       	brcc	.+0      	; 0xa0 <_ZN14ExternalEeprom9readBytesEjPhi+0x3a>
  a0:	6c 01       	movw	r12, r24
  a2:	e6 01       	movw	r28, r12
  a4:	00 c0       	rjmp	.+0      	; 0xa6 <_ZN14ExternalEeprom9readBytesEjPhi+0x40>
  a6:	f5 01       	movw	r30, r10
  a8:	84 81       	ldd	r24, Z+4	; 0x04
  aa:	95 81       	ldd	r25, Z+5	; 0x05
  ac:	7e 01       	movw	r14, r28
  ae:	8c 17       	cp	r24, r28
  b0:	9d 07       	cpc	r25, r29
  b2:	04 f4       	brge	.+0      	; 0xb4 <_ZN14ExternalEeprom9readBytesEjPhi+0x4e>
  b4:	7c 01       	movw	r14, r24
  b6:	d5 01       	movw	r26, r10
  b8:	ed 91       	ld	r30, X+
  ba:	fc 91       	ld	r31, X
  bc:	04 84       	ldd	r0, Z+12	; 0x0c
  be:	f5 85       	ldd	r31, Z+13	; 0x0d
  c0:	e0 2d       	mov	r30, r0
  c2:	97 01       	movw	r18, r14
  c4:	a4 01       	movw	r20, r8
  c6:	b8 01       	movw	r22, r16
  c8:	c5 01       	movw	r24, r10
  ca:	09 95       	icall
  cc:	0e 0d       	add	r16, r14
  ce:	1f 1d       	adc	r17, r15
  d0:	8e 0c       	add	r8, r14
  d2:	9f 1c       	adc	r9, r15
  d4:	ce 19       	sub	r28, r14
  d6:	df 09       	sbc	r29, r15
  d8:	1c 16       	cp	r1, r28
  da:	1d 06       	cpc	r1, r29
  dc:	04 f0       	brlt	.+0      	; 0xde <_ZN14ExternalEeprom9readBytesEjPhi+0x78>
  de:	96 01       	movw	r18, r12
  e0:	00 c0       	rjmp	.+0      	; 0xe2 <_ZN14ExternalEeprom9readBytesEjPhi+0x7c>
  e2:	2f ef       	ldi	r18, 0xFF	; 255
  e4:	3f ef       	ldi	r19, 0xFF	; 255
  e6:	c9 01       	movw	r24, r18
  e8:	df 91       	pop	r29
  ea:	cf 91       	pop	r28
  ec:	1f 91       	pop	r17
  ee:	0f 91       	pop	r16
  f0:	ff 90       	pop	r15
  f2:	ef 90       	pop	r14
  f4:	df 90       	pop	r13
  f6:	cf 90       	pop	r12
  f8:	bf 90       	pop	r11
  fa:	af 90       	pop	r10
  fc:	9f 90       	pop	r9
  fe:	8f 90       	pop	r8
 100:	08 95       	ret

00000102 <_ZN14ExternalEeprom10writeBlockEjPhi>:
 102:	08 95       	ret

00000104 <_ZN14ExternalEeprom9readBlockEjPhi>:
 104:	08 95       	ret

00000106 <_ZN14ExternalEepromC1Eijh>:
 106:	fc 01       	movw	r30, r24
 108:	80 e0       	ldi	r24, 0x00	; 0
 10a:	90 e0       	ldi	r25, 0x00	; 0
 10c:	91 83       	std	Z+1, r25	; 0x01
 10e:	80 83       	st	Z, r24
 110:	53 83       	std	Z+3, r21	; 0x03
 112:	42 83       	std	Z+2, r20	; 0x02
 114:	75 83       	std	Z+5, r23	; 0x05
 116:	64 83       	std	Z+4, r22	; 0x04
 118:	27 70       	andi	r18, 0x07	; 7
 11a:	20 65       	ori	r18, 0x50	; 80
 11c:	26 83       	std	Z+6, r18	; 0x06
 11e:	08 95       	ret

00000120 <_ZN14ExternalEeprom9endOfPageEj>:
 120:	cf 93       	push	r28
 122:	df 93       	push	r29
 124:	eb 01       	movw	r28, r22
 126:	dc 01       	movw	r26, r24
 128:	14 96       	adiw	r26, 0x04	; 4
 12a:	ed 91       	ld	r30, X+
 12c:	fc 91       	ld	r31, X
 12e:	15 97       	sbiw	r26, 0x05	; 5
 130:	cf 01       	movw	r24, r30
 132:	01 97       	sbiw	r24, 0x01	; 1
 134:	86 0f       	add	r24, r22
 136:	97 1f       	adc	r25, r23
 138:	bf 01       	movw	r22, r30
 13a:	0e 94 00 00 	call	0	; 0x0 <_ZN14ExternalEeprom5writeEjh>
 13e:	6e 9f       	mul	r22, r30
 140:	90 01       	movw	r18, r0
 142:	6f 9f       	mul	r22, r31
 144:	30 0d       	add	r19, r0
 146:	7e 9f       	mul	r23, r30
 148:	30 0d       	add	r19, r0
 14a:	11 24       	eor	r1, r1
 14c:	2c 1b       	sub	r18, r28
 14e:	3d 0b       	sbc	r19, r29
 150:	c9 01       	movw	r24, r18
 152:	df 91       	pop	r29
 154:	cf 91       	pop	r28
 156:	08 95       	ret

00000158 <_ZN14ExternalEeprom8setBytesEjhi>:
 158:	6f 92       	push	r6
 15a:	7f 92       	push	r7
 15c:	8f 92       	push	r8
 15e:	9f 92       	push	r9
 160:	af 92       	push	r10
 162:	bf 92       	push	r11
 164:	cf 92       	push	r12
 166:	df 92       	push	r13
 168:	ef 92       	push	r14
 16a:	ff 92       	push	r15
 16c:	0f 93       	push	r16
 16e:	1f 93       	push	r17
 170:	cf 93       	push	r28
 172:	df 93       	push	r29
 174:	cd b7       	in	r28, 0x3d	; 61
 176:	de b7       	in	r29, 0x3e	; 62
 178:	7c 01       	movw	r14, r24
 17a:	6b 01       	movw	r12, r22
 17c:	89 01       	movw	r16, r18
 17e:	8d b6       	in	r8, 0x3d	; 61
 180:	9e b6       	in	r9, 0x3e	; 62
 182:	dc 01       	movw	r26, r24
 184:	14 96       	adiw	r26, 0x04	; 4
 186:	8d 91       	ld	r24, X+
 188:	9c 91       	ld	r25, X
 18a:	15 97       	sbiw	r26, 0x05	; 5
 18c:	ed b7       	in	r30, 0x3d	; 61
 18e:	fe b7       	in	r31, 0x3e	; 62
 190:	e8 1b       	sub	r30, r24
 192:	f9 0b       	sbc	r31, r25
 194:	0f b6       	in	r0, 0x3f	; 63
 196:	f8 94       	cli
 198:	fe bf       	out	0x3e, r31	; 62
 19a:	0f be       	out	0x3f, r0	; 63
 19c:	ed bf       	out	0x3d, r30	; 61
 19e:	8d b7       	in	r24, 0x3d	; 61
 1a0:	9e b7       	in	r25, 0x3e	; 62
 1a2:	01 96       	adiw	r24, 0x01	; 1
 1a4:	78 2e       	mov	r7, r24
 1a6:	69 2e       	mov	r6, r25
 1a8:	12 96       	adiw	r26, 0x02	; 2
 1aa:	8d 91       	ld	r24, X+
 1ac:	9c 91       	ld	r25, X
 1ae:	13 97       	sbiw	r26, 0x03	; 3
 1b0:	68 17       	cp	r22, r24
 1b2:	79 07       	cpc	r23, r25
 1b4:	00 f0       	brcs	.+0      	; 0x1b6 <_ZN14ExternalEeprom8setBytesEjhi+0x5e>
 1b6:	00 c0       	rjmp	.+0      	; 0x1b8 <_ZN14ExternalEeprom8setBytesEjhi+0x60>
 1b8:	86 1b       	sub	r24, r22
 1ba:	97 0b       	sbc	r25, r23
 1bc:	82 17       	cp	r24, r18
 1be:	93 07       	cpc	r25, r19
 1c0:	00 f4       	brcc	.+0      	; 0x1c2 <_ZN14ExternalEeprom8setBytesEjhi+0x6a>
 1c2:	8c 01       	movw	r16, r24
 1c4:	87 2d       	mov	r24, r7
 1c6:	96 2d       	mov	r25, r6
 1c8:	fc 01       	movw	r30, r24
 1ca:	00 c0       	rjmp	.+0      	; 0x1cc <_ZN14ExternalEeprom8setBytesEjhi+0x74>
 1cc:	41 93       	st	Z+, r20
 1ce:	bf 01       	movw	r22, r30
 1d0:	68 1b       	sub	r22, r24
 1d2:	79 0b       	sbc	r23, r25
 1d4:	d7 01       	movw	r26, r14
 1d6:	14 96       	adiw	r26, 0x04	; 4
 1d8:	2d 91       	ld	r18, X+
 1da:	3c 91       	ld	r19, X
 1dc:	15 97       	sbiw	r26, 0x05	; 5
 1de:	62 17       	cp	r22, r18
 1e0:	73 07       	cpc	r23, r19
 1e2:	04 f0       	brlt	.+0      	; 0x1e4 <_ZN14ExternalEeprom8setBytesEjhi+0x8c>
 1e4:	b6 01       	movw	r22, r12
 1e6:	c7 01       	movw	r24, r14
 1e8:	0e 94 00 00 	call	0	; 0x0 <_ZN14ExternalEeprom5writeEjh>
 1ec:	5c 01       	movw	r10, r24
 1ee:	18 16       	cp	r1, r24
 1f0:	19 06       	cpc	r1, r25
 1f2:	04 f4       	brge	.+0      	; 0x1f4 <_ZN14ExternalEeprom8setBytesEjhi+0x9c>
 1f4:	08 17       	cp	r16, r24
 1f6:	19 07       	cpc	r17, r25
 1f8:	04 f4       	brge	.+0      	; 0x1fa <_ZN14ExternalEeprom8setBytesEjhi+0xa2>
 1fa:	58 01       	movw	r10, r16
 1fc:	00 c0       	rjmp	.+0      	; 0x1fe <_ZN14ExternalEeprom8setBytesEjhi+0xa6>
 1fe:	f7 01       	movw	r30, r14
 200:	84 81       	ldd	r24, Z+4	; 0x04
 202:	95 81       	ldd	r25, Z+5	; 0x05
 204:	58 01       	movw	r10, r16
 206:	80 17       	cp	r24, r16
 208:	91 07       	cpc	r25, r17
 20a:	04 f4       	brge	.+0      	; 0x20c <_ZN14ExternalEeprom8setBytesEjhi+0xb4>
 20c:	5c 01       	movw	r10, r24
 20e:	d7 01       	movw	r26, r14
 210:	ed 91       	ld	r30, X+
 212:	fc 91       	ld	r31, X
 214:	02 84       	ldd	r0, Z+10	; 0x0a
 216:	f3 85       	ldd	r31, Z+11	; 0x0b
 218:	e0 2d       	mov	r30, r0
 21a:	95 01       	movw	r18, r10
 21c:	47 2d       	mov	r20, r7
 21e:	56 2d       	mov	r21, r6
 220:	b6 01       	movw	r22, r12
 222:	c7 01       	movw	r24, r14
 224:	09 95       	icall
 226:	ca 0c       	add	r12, r10
 228:	db 1c       	adc	r13, r11
 22a:	0a 19       	sub	r16, r10
 22c:	1b 09       	sbc	r17, r11
 22e:	10 16       	cp	r1, r16
 230:	11 06       	cpc	r1, r17
 232:	04 f0       	brlt	.+0      	; 0x234 <_ZN14ExternalEeprom8setBytesEjhi+0xdc>
 234:	00 c0       	rjmp	.+0      	; 0x236 <_ZN14ExternalEeprom8setBytesEjhi+0xde>
 236:	0f ef       	ldi	r16, 0xFF	; 255
 238:	1f ef       	ldi	r17, 0xFF	; 255
 23a:	c8 01       	movw	r24, r16
 23c:	0f b6       	in	r0, 0x3f	; 63
 23e:	f8 94       	cli
 240:	9e be       	out	0x3e, r9	; 62
 242:	0f be       	out	0x3f, r0	; 63
 244:	8d be       	out	0x3d, r8	; 61
 246:	df 91       	pop	r29
 248:	cf 91       	pop	r28
 24a:	1f 91       	pop	r17
 24c:	0f 91       	pop	r16
 24e:	ff 90       	pop	r15
 250:	ef 90       	pop	r14
 252:	df 90       	pop	r13
 254:	cf 90       	pop	r12
 256:	bf 90       	pop	r11
 258:	af 90       	pop	r10
 25a:	9f 90       	pop	r9
 25c:	8f 90       	pop	r8
 25e:	7f 90       	pop	r7
 260:	6f 90       	pop	r6
 262:	08 95       	ret

00000264 <_ZN14ExternalEeprom10writeBytesEjPhi>:
 264:	af 92       	push	r10
 266:	bf 92       	push	r11
 268:	cf 92       	push	r12
 26a:	df 92       	push	r13
 26c:	ef 92       	push	r14
 26e:	ff 92       	push	r15
 270:	0f 93       	push	r16
 272:	1f 93       	push	r17
 274:	cf 93       	push	r28
 276:	df 93       	push	r29
 278:	7c 01       	movw	r14, r24
 27a:	8b 01       	movw	r16, r22
 27c:	6a 01       	movw	r12, r20
 27e:	e9 01       	movw	r28, r18
 280:	dc 01       	movw	r26, r24
 282:	12 96       	adiw	r26, 0x02	; 2
 284:	8d 91       	ld	r24, X+
 286:	9c 91       	ld	r25, X
 288:	13 97       	sbiw	r26, 0x03	; 3
 28a:	86 1b       	sub	r24, r22
 28c:	97 0b       	sbc	r25, r23
 28e:	01 f0       	breq	.+0      	; 0x290 <_ZN14ExternalEeprom10writeBytesEjPhi+0x2c>
 290:	82 17       	cp	r24, r18
 292:	93 07       	cpc	r25, r19
 294:	00 f4       	brcc	.+0      	; 0x296 <_ZN14ExternalEeprom10writeBytesEjPhi+0x32>
 296:	ec 01       	movw	r28, r24
 298:	b8 01       	movw	r22, r16
 29a:	c7 01       	movw	r24, r14
 29c:	0e 94 00 00 	call	0	; 0x0 <_ZN14ExternalEeprom5writeEjh>
 2a0:	c8 17       	cp	r28, r24
 2a2:	d9 07       	cpc	r29, r25
 2a4:	00 f0       	brcs	.+0      	; 0x2a6 <_ZN14ExternalEeprom10writeBytesEjPhi+0x42>
 2a6:	5c 01       	movw	r10, r24
 2a8:	00 c0       	rjmp	.+0      	; 0x2aa <_ZN14ExternalEeprom10writeBytesEjPhi+0x46>
 2aa:	5e 01       	movw	r10, r28
 2ac:	1a 14       	cp	r1, r10
 2ae:	1b 04       	cpc	r1, r11
 2b0:	04 f4       	brge	.+0      	; 0x2b2 <_ZN14ExternalEeprom10writeBytesEjPhi+0x4e>
 2b2:	00 c0       	rjmp	.+0      	; 0x2b4 <_ZN14ExternalEeprom10writeBytesEjPhi+0x50>
 2b4:	f7 01       	movw	r30, r14
 2b6:	84 81       	ldd	r24, Z+4	; 0x04
 2b8:	95 81       	ldd	r25, Z+5	; 0x05
 2ba:	5e 01       	movw	r10, r28
 2bc:	8c 17       	cp	r24, r28
 2be:	9d 07       	cpc	r25, r29
 2c0:	04 f4       	brge	.+0      	; 0x2c2 <_ZN14ExternalEeprom10writeBytesEjPhi+0x5e>
 2c2:	5c 01       	movw	r10, r24
 2c4:	d7 01       	movw	r26, r14
 2c6:	ed 91       	ld	r30, X+
 2c8:	fc 91       	ld	r31, X
 2ca:	02 84       	ldd	r0, Z+10	; 0x0a
 2cc:	f3 85       	ldd	r31, Z+11	; 0x0b
 2ce:	e0 2d       	mov	r30, r0
 2d0:	95 01       	movw	r18, r10
 2d2:	a6 01       	movw	r20, r12
 2d4:	b8 01       	movw	r22, r16
 2d6:	c7 01       	movw	r24, r14
 2d8:	09 95       	icall
 2da:	0a 0d       	add	r16, r10
 2dc:	1b 1d       	adc	r17, r11
 2de:	ca 0c       	add	r12, r10
 2e0:	db 1c       	adc	r13, r11
 2e2:	ca 19       	sub	r28, r10
 2e4:	db 09       	sbc	r29, r11
 2e6:	1c 16       	cp	r1, r28
 2e8:	1d 06       	cpc	r1, r29
 2ea:	04 f0       	brlt	.+0      	; 0x2ec <_ZN14ExternalEeprom10writeBytesEjPhi+0x88>
 2ec:	df 91       	pop	r29
 2ee:	cf 91       	pop	r28
 2f0:	1f 91       	pop	r17
 2f2:	0f 91       	pop	r16
 2f4:	ff 90       	pop	r15
 2f6:	ef 90       	pop	r14
 2f8:	df 90       	pop	r13
 2fa:	cf 90       	pop	r12
 2fc:	bf 90       	pop	r11
 2fe:	af 90       	pop	r10
 300:	08 95       	ret

ExternalByteArrayEeprom.o:     file format elf32-avr

Sections:
Idx Name          Size      VMA       LMA       File off  Algn
  0 .group        00000008  00000000  00000000  00000034  2**2
                  CONTENTS, READONLY, EXCLUDE, GROUP, LINK_ONCE_DISCARD
  1 .text         000000a2  00000000  00000000  0000003c  2**0
                  CONTENTS, ALLOC, LOAD, RELOC, READONLY, CODE
  2 .data         00000000  00000000  00000000  000000de  2**0
                  CONTENTS, ALLOC, LOAD, DATA
  3 .bss          00000000  00000000  00000000  000000de  2**0
                  ALLOC
  4 .rodata._ZTV23ExternalByteArrayEeprom 00000012  00000000  00000000  000000de  2**0
                  CONTENTS, ALLOC, LOAD, RELOC, READONLY, DATA
  5 .comment      00000012  00000000  00000000  000000f0  2**0
                  CONTENTS, READONLY

Disassembly of section .text:

00000000 <_ZN23ExternalByteArrayEeprom10writeBlockEjPhi>:
   0:	0f 93       	push	r16
   2:	1f 93       	push	r17
   4:	cf 93       	push	r28
   6:	df 93       	push	r29
   8:	8a 01       	movw	r16, r20
   a:	da 01       	movw	r26, r20
   c:	64 1b       	sub	r22, r20
   e:	75 0b       	sbc	r23, r21
  10:	00 c0       	rjmp	.+0      	; 0x12 <_ZN23ExternalByteArrayEeprom10writeBlockEjPhi+0x12>
  12:	ab 01       	movw	r20, r22
  14:	4a 0f       	add	r20, r26
  16:	5b 1f       	adc	r21, r27
  18:	fc 01       	movw	r30, r24
  1a:	c7 81       	ldd	r28, Z+7	; 0x07
  1c:	d0 85       	ldd	r29, Z+8	; 0x08
  1e:	c4 0f       	add	r28, r20
  20:	d5 1f       	adc	r29, r21
  22:	4d 91       	ld	r20, X+
  24:	48 83       	st	Y, r20
  26:	ad 01       	movw	r20, r26
  28:	40 1b       	sub	r20, r16
  2a:	51 0b       	sbc	r21, r17
  2c:	42 17       	cp	r20, r18
  2e:	53 07       	cpc	r21, r19
  30:	04 f0       	brlt	.+0      	; 0x32 <_ZN23ExternalByteArrayEeprom10writeBlockEjPhi+0x32>
  32:	df 91       	pop	r29
  34:	cf 91       	pop	r28
  36:	1f 91       	pop	r17
  38:	0f 91       	pop	r16
  3a:	08 95       	ret

0000003c <_ZN23ExternalByteArrayEeprom9readBlockEjPhi>:
  3c:	0f 93       	push	r16
  3e:	1f 93       	push	r17
  40:	cf 93       	push	r28
  42:	df 93       	push	r29
  44:	8a 01       	movw	r16, r20
  46:	ea 01       	movw	r28, r20
  48:	64 1b       	sub	r22, r20
  4a:	75 0b       	sbc	r23, r21
  4c:	00 c0       	rjmp	.+0      	; 0x4e <_ZN23ExternalByteArrayEeprom9readBlockEjPhi+0x12>
  4e:	fc 01       	movw	r30, r24
  50:	a7 81       	ldd	r26, Z+7	; 0x07
  52:	b0 85       	ldd	r27, Z+8	; 0x08
  54:	ac 0f       	add	r26, r28
  56:	bd 1f       	adc	r27, r29
  58:	a6 0f       	add	r26, r22
  5a:	b7 1f       	adc	r27, r23
  5c:	4c 91       	ld	r20, X
  5e:	49 93       	st	Y+, r20
  60:	ae 01       	movw	r20, r28
  62:	40 1b       	sub	r20, r16
  64:	51 0b       	sbc	r21, r17
  66:	42 17       	cp	r20, r18
  68:	53 07       	cpc	r21, r19
  6a:	04 f0       	brlt	.+0      	; 0x6c <_ZN23ExternalByteArrayEeprom9readBlockEjPhi+0x30>
  6c:	df 91       	pop	r29
  6e:	cf 91       	pop	r28
  70:	1f 91       	pop	r17
  72:	0f 91       	pop	r16
  74:	08 95       	ret

00000076 <_ZN23ExternalByteArrayEepromC1EPhj>:
  76:	0f 93       	push	r16
  78:	1f 93       	push	r17
  7a:	cf 93       	push	r28
  7c:	df 93       	push	r29
  7e:	ec 01       	movw	r28, r24
  80:	8b 01       	movw	r16, r22
  82:	20 e0       	ldi	r18, 0x00	; 0
  84:	60 e1       	ldi	r22, 0x10	; 16
  86:	70 e0       	ldi	r23, 0x00	; 0
  88:	0e 94 00 00 	call	0	; 0x0 <_ZN23ExternalByteArrayEeprom10writeBlockEjPhi>
  8c:	80 e0       	ldi	r24, 0x00	; 0
  8e:	90 e0       	ldi	r25, 0x00	; 0
  90:	99 83       	std	Y+1, r25	; 0x01
  92:	88 83       	st	Y, r24
  94:	18 87       	std	Y+8, r17	; 0x08
  96:	0f 83       	std	Y+7, r16	; 0x07
  98:	df 91       	pop	r29
  9a:	cf 91       	pop	r28
  9c:	1f 91       	pop	r17
  9e:	0f 91       	pop	r16
  a0:	08 95       	ret

External24x16Eeprom.o:     file format elf32-avr

Sections:
Idx Name          Size      VMA       LMA       File off  Algn
  0 .group        00000008  00000000  00000000  00000034  2**2
                  CONTENTS, READONLY, EXCLUDE, GROUP, LINK_ONCE_DISCARD
  1 .text         0000013c  00000000  00000000  0000003c  2**0
                  CONTENTS, ALLOC, LOAD, RELOC, READONLY, CODE
  2 .data         00000000  00000000  00000000  00000178  2**0
                  CONTENTS, ALLOC, LOAD, DATA
  3 .bss          00000000  00000000  00000000  00000178  2**0
                  ALLOC
  4 .rodata._ZTV19External24x16Eeprom 00000012  00000000  00000000  00000178  2**0
                  CONTENTS, ALLOC, LOAD, RELOC, READONLY, DATA
  5 .comment      00000012  00000000  00000000  0000018a  2**0
                  CONTENTS, READONLY

Disassembly of section .text:

00000000 <_ZN19External24x16Eeprom9readBlockEjPhi>:
   0:	ef 92       	push	r14
   2:	ff 92       	push	r15
   4:	0f 93       	push	r16
   6:	1f 93       	push	r17
   8:	cf 93       	push	r28
   a:	df 93       	push	r29
   c:	d6 2f       	mov	r29, r22
   e:	8a 01       	movw	r16, r20
  10:	79 01       	movw	r14, r18
  12:	e7 2f       	mov	r30, r23
  14:	f0 e0       	ldi	r31, 0x00	; 0
  16:	e7 70       	andi	r30, 0x07	; 7
  18:	ff 27       	eor	r31, r31
  1a:	dc 01       	movw	r26, r24
  1c:	16 96       	adiw	r26, 0x06	; 6
  1e:	cc 91       	ld	r28, X
  20:	ce 2b       	or	r28, r30
  22:	6c 2f       	mov	r22, r28
  24:	80 e0       	ldi	r24, 0x00	; 0
  26:	90 e0       	ldi	r25, 0x00	; 0
  28:	0e 94 00 00 	call	0	; 0x0 <_ZN19External24x16Eeprom9readBlockEjPhi>
  2c:	6d 2f       	mov	r22, r29
  2e:	80 e0       	ldi	r24, 0x00	; 0
  30:	90 e0       	ldi	r25, 0x00	; 0
  32:	0e 94 00 00 	call	0	; 0x0 <_ZN19External24x16Eeprom9readBlockEjPhi>
  36:	80 e0       	ldi	r24, 0x00	; 0
  38:	90 e0       	ldi	r25, 0x00	; 0
  3a:	0e 94 00 00 	call	0	; 0x0 <_ZN19External24x16Eeprom9readBlockEjPhi>
  3e:	a7 01       	movw	r20, r14
  40:	6c 2f       	mov	r22, r28
  42:	70 e0       	ldi	r23, 0x00	; 0
  44:	80 e0       	ldi	r24, 0x00	; 0
  46:	90 e0       	ldi	r25, 0x00	; 0
  48:	0e 94 00 00 	call	0	; 0x0 <_ZN19External24x16Eeprom9readBlockEjPhi>
  4c:	e8 01       	movw	r28, r16
  4e:	00 c0       	rjmp	.+0      	; 0x50 <_ZN19External24x16Eeprom9readBlockEjPhi+0x50>
  50:	80 e0       	ldi	r24, 0x00	; 0
  52:	90 e0       	ldi	r25, 0x00	; 0
  54:	0e 94 00 00 	call	0	; 0x0 <_ZN19External24x16Eeprom9readBlockEjPhi>
  58:	89 2b       	or	r24, r25
  5a:	01 f0       	breq	.+0      	; 0x5c <_ZN19External24x16Eeprom9readBlockEjPhi+0x5c>
  5c:	80 e0       	ldi	r24, 0x00	; 0
  5e:	90 e0       	ldi	r25, 0x00	; 0
  60:	0e 94 00 00 	call	0	; 0x0 <_ZN19External24x16Eeprom9readBlockEjPhi>
  64:	f8 01       	movw	r30, r16
  66:	81 93       	st	Z+, r24
  68:	8f 01       	movw	r16, r30
  6a:	c8 01       	movw	r24, r16
  6c:	8c 1b       	sub	r24, r28
  6e:	9d 0b       	sbc	r25, r29
  70:	8e 15       	cp	r24, r14
  72:	9f 05       	cpc	r25, r15
  74:	04 f0       	brlt	.+0      	; 0x76 <_ZN19External24x16Eeprom9readBlockEjPhi+0x76>
  76:	df 91       	pop	r29
  78:	cf 91       	pop	r28
  7a:	1f 91       	pop	r17
  7c:	0f 91       	pop	r16
  7e:	ff 90       	pop	r15
  80:	ef 90       	pop	r14
  82:	08 95       	ret

00000084 <_ZN19External24x16Eeprom10writeBlockEjPhi>:
  84:	cf 92       	push	r12
  86:	df 92       	push	r13
  88:	ef 92       	push	r14
  8a:	ff 92       	push	r15
  8c:	0f 93       	push	r16
  8e:	1f 93       	push	r17
  90:	cf 93       	push	r28
  92:	df 93       	push	r29
  94:	00 d0       	rcall	.+0      	; 0x96 <_ZN19External24x16Eeprom10writeBlockEjPhi+0x12>
  96:	cd b7       	in	r28, 0x3d	; 61
  98:	de b7       	in	r29, 0x3e	; 62
  9a:	16 2f       	mov	r17, r22
  9c:	79 01       	movw	r14, r18
  9e:	e7 2f       	mov	r30, r23
  a0:	f0 e0       	ldi	r31, 0x00	; 0
  a2:	e7 70       	andi	r30, 0x07	; 7
  a4:	ff 27       	eor	r31, r31
  a6:	dc 01       	movw	r26, r24
  a8:	16 96       	adiw	r26, 0x06	; 6
  aa:	6c 91       	ld	r22, X
  ac:	6e 2b       	or	r22, r30
  ae:	70 e0       	ldi	r23, 0x00	; 0
  b0:	80 e0       	ldi	r24, 0x00	; 0
  b2:	90 e0       	ldi	r25, 0x00	; 0
  b4:	49 83       	std	Y+1, r20	; 0x01
  b6:	5a 83       	std	Y+2, r21	; 0x02
  b8:	0e 94 00 00 	call	0	; 0x0 <_ZN19External24x16Eeprom9readBlockEjPhi>
  bc:	61 2f       	mov	r22, r17
  be:	80 e0       	ldi	r24, 0x00	; 0
  c0:	90 e0       	ldi	r25, 0x00	; 0
  c2:	0e 94 00 00 	call	0	; 0x0 <_ZN19External24x16Eeprom9readBlockEjPhi>
  c6:	49 81       	ldd	r20, Y+1	; 0x01
  c8:	c4 2e       	mov	r12, r20
  ca:	5a 81       	ldd	r21, Y+2	; 0x02
  cc:	d5 2e       	mov	r13, r21
  ce:	86 01       	movw	r16, r12
  d0:	00 c0       	rjmp	.+0      	; 0xd2 <_ZN19External24x16Eeprom10writeBlockEjPhi+0x4e>
  d2:	f8 01       	movw	r30, r16
  d4:	61 91       	ld	r22, Z+
  d6:	8f 01       	movw	r16, r30
  d8:	80 e0       	ldi	r24, 0x00	; 0
  da:	90 e0       	ldi	r25, 0x00	; 0
  dc:	0e 94 00 00 	call	0	; 0x0 <_ZN19External24x16Eeprom9readBlockEjPhi>
  e0:	c8 01       	movw	r24, r16
  e2:	8c 19       	sub	r24, r12
  e4:	9d 09       	sbc	r25, r13
  e6:	8e 15       	cp	r24, r14
  e8:	9f 05       	cpc	r25, r15
  ea:	04 f0       	brlt	.+0      	; 0xec <_ZN19External24x16Eeprom10writeBlockEjPhi+0x68>
  ec:	80 e0       	ldi	r24, 0x00	; 0
  ee:	90 e0       	ldi	r25, 0x00	; 0
  f0:	0e 94 00 00 	call	0	; 0x0 <_ZN19External24x16Eeprom9readBlockEjPhi>
  f4:	65 e0       	ldi	r22, 0x05	; 5
  f6:	70 e0       	ldi	r23, 0x00	; 0
  f8:	80 e0       	ldi	r24, 0x00	; 0
  fa:	90 e0       	ldi	r25, 0x00	; 0
  fc:	0f 90       	pop	r0
  fe:	0f 90       	pop	r0
 100:	df 91       	pop	r29
 102:	cf 91       	pop	r28
 104:	1f 91       	pop	r17
 106:	0f 91       	pop	r16
 108:	ff 90       	pop	r15
 10a:	ef 90       	pop	r14
 10c:	df 90       	pop	r13
 10e:	cf 90       	pop	r12
 110:	0c 94 00 00 	jmp	0	; 0x0 <_ZN19External24x16Eeprom9readBlockEjPhi>

00000114 <_ZN19External24x16EepromC1Eh>:
 114:	cf 93       	push	r28
 116:	df 93       	push	r29
 118:	ec 01       	movw	r28, r24
 11a:	26 2f       	mov	r18, r22
 11c:	4f ef       	ldi	r20, 0xFF	; 255
 11e:	57 e0       	ldi	r21, 0x07	; 7
 120:	60 e2       	ldi	r22, 0x20	; 32
 122:	70 e0       	ldi	r23, 0x00	; 0
 124:	0e 94 00 00 	call	0	; 0x0 <_ZN19External24x16Eeprom9readBlockEjPhi>
 128:	80 e0       	ldi	r24, 0x00	; 0
 12a:	90 e0       	ldi	r25, 0x00	; 0
 12c:	99 83       	std	Y+1, r25	; 0x01
 12e:	88 83       	st	Y, r24
 130:	80 e0       	ldi	r24, 0x00	; 0
 132:	90 e0       	ldi	r25, 0x00	; 0
 134:	df 91       	pop	r29
 136:	cf 91       	pop	r28
 138:	0c 94 00 00 	jmp	0	; 0x0 <_ZN19External24x16Eeprom9readBlockEjPhi>

External24cl256Eeprom.o:     file format elf32-avr

Sections:
Idx Name          Size      VMA       LMA       File off  Algn
  0 .group        00000008  00000000  00000000  00000034  2**2
                  CONTENTS, READONLY, EXCLUDE, GROUP, LINK_ONCE_DISCARD
  1 .group        00000008  00000000  00000000  0000003c  2**2
                  CONTENTS, READONLY, EXCLUDE, GROUP, LINK_ONCE_DISCARD
  2 .text         00000168  00000000  00000000  00000044  2**0
                  CONTENTS, ALLOC, LOAD, RELOC, READONLY, CODE
  3 .data         00000000  00000000  00000000  000001ac  2**0
                  CONTENTS, ALLOC, LOAD, DATA
  4 .bss          00000000  00000000  00000000  000001ac  2**0
                  ALLOC
  5 .text._ZN7TwoWire5writeEi 0000000e  00000000  00000000  000001ac  2**0
                  CONTENTS, ALLOC, LOAD, READONLY, CODE
  6 .rodata._ZTV21External24cl256Eeprom 00000012  00000000  00000000  000001ba  2**0
                  CONTENTS, ALLOC, LOAD, RELOC, READONLY, DATA
  7 .comment      00000012  00000000  00000000  000001cc  2**0
                  CONTENTS, READONLY

Disassembly of section .text:

00000000 <_ZN21External24cl256Eeprom9readBlockEjPhi>:
   0:	af 92       	push	r10
   2:	bf 92       	push	r11
   4:	cf 92       	push	r12
   6:	df 92       	push	r13
   8:	ef 92       	push	r14
   a:	ff 92       	push	r15
   c:	0f 93       	push	r16
   e:	1f 93       	push	r17
  10:	cf 93       	push	r28
  12:	df 93       	push	r29
  14:	1f 92       	push	r1
  16:	cd b7       	in	r28, 0x3d	; 61
  18:	de b7       	in	r29, 0x3e	; 62
  1a:	5c 01       	movw	r10, r24
  1c:	d6 2e       	mov	r13, r22
  1e:	8a 01       	movw	r16, r20
  20:	79 01       	movw	r14, r18
  22:	fc 01       	movw	r30, r24
  24:	66 81       	ldd	r22, Z+6	; 0x06
  26:	80 e0       	ldi	r24, 0x00	; 0
  28:	90 e0       	ldi	r25, 0x00	; 0
  2a:	79 83       	std	Y+1, r23	; 0x01
  2c:	0e 94 00 00 	call	0	; 0x0 <_ZN21External24cl256Eeprom9readBlockEjPhi>
  30:	79 81       	ldd	r23, Y+1	; 0x01
  32:	e7 2f       	mov	r30, r23
  34:	f0 e0       	ldi	r31, 0x00	; 0
  36:	bf 01       	movw	r22, r30
  38:	77 27       	eor	r23, r23
  3a:	80 e0       	ldi	r24, 0x00	; 0
  3c:	90 e0       	ldi	r25, 0x00	; 0
  3e:	0e 94 00 00 	call	0	; 0x0 <_ZN21External24cl256Eeprom9readBlockEjPhi>
  42:	6d 2d       	mov	r22, r13
  44:	80 e0       	ldi	r24, 0x00	; 0
  46:	90 e0       	ldi	r25, 0x00	; 0
  48:	0e 94 00 00 	call	0	; 0x0 <_ZN21External24cl256Eeprom9readBlockEjPhi>
  4c:	80 e0       	ldi	r24, 0x00	; 0
  4e:	90 e0       	ldi	r25, 0x00	; 0
  50:	0e 94 00 00 	call	0	; 0x0 <_ZN21External24cl256Eeprom9readBlockEjPhi>
  54:	f5 01       	movw	r30, r10
  56:	66 81       	ldd	r22, Z+6	; 0x06
  58:	a7 01       	movw	r20, r14
  5a:	70 e0       	ldi	r23, 0x00	; 0
  5c:	80 e0       	ldi	r24, 0x00	; 0
  5e:	90 e0       	ldi	r25, 0x00	; 0
  60:	0e 94 00 00 	call	0	; 0x0 <_ZN21External24cl256Eeprom9readBlockEjPhi>
  64:	68 01       	movw	r12, r16
  66:	00 c0       	rjmp	.+0      	; 0x68 <_ZN21External24cl256Eeprom9readBlockEjPhi+0x68>
  68:	80 e0       	ldi	r24, 0x00	; 0
  6a:	90 e0       	ldi	r25, 0x00	; 0
  6c:	0e 94 00 00 	call	0	; 0x0 <_ZN21External24cl256Eeprom9readBlockEjPhi>
  70:	89 2b       	or	r24, r25
  72:	01 f0       	breq	.+0      	; 0x74 <_ZN21External24cl256Eeprom9readBlockEjPhi+0x74>
  74:	80 e0       	ldi	r24, 0x00	; 0
  76:	90 e0       	ldi	r25, 0x00	; 0
  78:	0e 94 00 00 	call	0	; 0x0 <_ZN21External24cl256Eeprom9readBlockEjPhi>
  7c:	f8 01       	movw	r30, r16
  7e:	81 93       	st	Z+, r24
  80:	8f 01       	movw	r16, r30
  82:	c8 01       	movw	r24, r16
  84:	8c 19       	sub	r24, r12
  86:	9d 09       	sbc	r25, r13
  88:	8e 15       	cp	r24, r14
  8a:	9f 05       	cpc	r25, r15
  8c:	04 f0       	brlt	.+0      	; 0x8e <_ZN21External24cl256Eeprom9readBlockEjPhi+0x8e>
  8e:	0f 90       	pop	r0
  90:	df 91       	pop	r29
  92:	cf 91       	pop	r28
  94:	1f 91       	pop	r17
  96:	0f 91       	pop	r16
  98:	ff 90       	pop	r15
  9a:	ef 90       	pop	r14
  9c:	df 90       	pop	r13
  9e:	cf 90       	pop	r12
  a0:	bf 90       	pop	r11
  a2:	af 90       	pop	r10
  a4:	08 95       	ret

000000a6 <_ZN21External24cl256Eeprom10writeBlockEjPhi>:
  a6:	cf 92       	push	r12
  a8:	df 92       	push	r13
  aa:	ef 92       	push	r14
  ac:	ff 92       	push	r15
  ae:	0f 93       	push	r16
  b0:	1f 93       	push	r17
  b2:	cf 93       	push	r28
  b4:	df 93       	push	r29
  b6:	00 d0       	rcall	.+0      	; 0xb8 <_ZN21External24cl256Eeprom10writeBlockEjPhi+0x12>
  b8:	1f 92       	push	r1
  ba:	cd b7       	in	r28, 0x3d	; 61
  bc:	de b7       	in	r29, 0x3e	; 62
  be:	16 2f       	mov	r17, r22
  c0:	79 01       	movw	r14, r18
  c2:	fc 01       	movw	r30, r24
  c4:	66 81       	ldd	r22, Z+6	; 0x06
  c6:	80 e0       	ldi	r24, 0x00	; 0
  c8:	90 e0       	ldi	r25, 0x00	; 0
  ca:	4a 83       	std	Y+2, r20	; 0x02
  cc:	5b 83       	std	Y+3, r21	; 0x03
  ce:	79 83       	std	Y+1, r23	; 0x01
  d0:	0e 94 00 00 	call	0	; 0x0 <_ZN21External24cl256Eeprom9readBlockEjPhi>
  d4:	79 81       	ldd	r23, Y+1	; 0x01
  d6:	87 2f       	mov	r24, r23
  d8:	90 e0       	ldi	r25, 0x00	; 0
  da:	bc 01       	movw	r22, r24
  dc:	77 27       	eor	r23, r23
  de:	80 e0       	ldi	r24, 0x00	; 0
  e0:	90 e0       	ldi	r25, 0x00	; 0
  e2:	0e 94 00 00 	call	0	; 0x0 <_ZN21External24cl256Eeprom9readBlockEjPhi>
  e6:	61 2f       	mov	r22, r17
  e8:	80 e0       	ldi	r24, 0x00	; 0
  ea:	90 e0       	ldi	r25, 0x00	; 0
  ec:	0e 94 00 00 	call	0	; 0x0 <_ZN21External24cl256Eeprom9readBlockEjPhi>
  f0:	4a 81       	ldd	r20, Y+2	; 0x02
  f2:	c4 2e       	mov	r12, r20
  f4:	5b 81       	ldd	r21, Y+3	; 0x03
  f6:	d5 2e       	mov	r13, r21
  f8:	86 01       	movw	r16, r12
  fa:	00 c0       	rjmp	.+0      	; 0xfc <_ZN21External24cl256Eeprom10writeBlockEjPhi+0x56>
  fc:	f8 01       	movw	r30, r16
  fe:	61 91       	ld	r22, Z+
 100:	8f 01       	movw	r16, r30
 102:	80 e0       	ldi	r24, 0x00	; 0
 104:	90 e0       	ldi	r25, 0x00	; 0
 106:	0e 94 00 00 	call	0	; 0x0 <_ZN21External24cl256Eeprom9readBlockEjPhi>
 10a:	c8 01       	movw	r24, r16
 10c:	8c 19       	sub	r24, r12
 10e:	9d 09       	sbc	r25, r13
 110:	8e 15       	cp	r24, r14
 112:	9f 05       	cpc	r25, r15
 114:	04 f0       	brlt	.+0      	; 0x116 <_ZN21External24cl256Eeprom10writeBlockEjPhi+0x70>
 116:	80 e0       	ldi	r24, 0x00	; 0
 118:	90 e0       	ldi	r25, 0x00	; 0
 11a:	0e 94 00 00 	call	0	; 0x0 <_ZN21External24cl256Eeprom9readBlockEjPhi>
 11e:	65 e0       	ldi	r22, 0x05	; 5
 120:	70 e0       	ldi	r23, 0x00	; 0
 122:	80 e0       	ldi	r24, 0x00	; 0
 124:	90 e0       	ldi	r25, 0x00	; 0
 126:	0f 90       	pop	r0
 128:	0f 90       	pop	r0
 12a:	0f 90       	pop	r0
 12c:	df 91       	pop	r29
 12e:	cf 91       	pop	r28
 130:	1f 91       	pop	r17
 132:	0f 91       	pop	r16
 134:	ff 90       	pop	r15
 136:	ef 90       	pop	r14
 138:	df 90       	pop	r13
 13a:	cf 90       	pop	r12
 13c:	0c 94 00 00 	jmp	0	; 0x0 <_ZN21External24cl256Eeprom9readBlockEjPhi>

00000140 <_ZN21External24cl256EepromC1Eh>:
 140:	cf 93       	push	r28
 142:	df 93       	push	r29
 144:	ec 01       	movw	r28, r24
 146:	26 2f       	mov	r18, r22
 148:	4f ef       	ldi	r20, 0xFF	; 255
 14a:	5f e7       	ldi	r21, 0x7F	; 127
 14c:	60 e4       	ldi	r22, 0x40	; 64
 14e:	70 e0       	ldi	r23, 0x00	; 0
 150:	0e 94 00 00 	call	0	; 0x0 <_ZN21External24cl256Eeprom9readBlockEjPhi>
 154:	80 e0       	ldi	r24, 0x00	; 0
 156:	90 e0       	ldi	r25, 0x00	; 0
 158:	99 83       	std	Y+1, r25	; 0x01
 15a:	88 83       	st	Y, r24
 15c:	80 e0       	ldi	r24, 0x00	; 0
 15e:	90 e0       	ldi	r25, 0x00	; 0
 160:	df 91       	pop	r29
 162:	cf 91       	pop	r28
 164:	0c 94 00 00 	jmp	0	; 0x0 <_ZN21External24cl256Eeprom9readBlockEjPhi>

Disassembly of section .text._ZN7TwoWire5writeEi:

00000000 <_ZN7TwoWire5writeEi>:
   0:	dc 01       	movw	r26, r24
   2:	ed 91       	ld	r30, X+
   4:	fc 91       	ld	r31, X
   6:	01 90       	ld	r0, Z+
   8:	f0 81       	ld	r31, Z
   a:	e0 2d       	mov	r30, r0
   c:	09 94       	ijmp
